(dp0
S'show_imports'
p1
I1
sS'private_css'
p2
S'green'
p3
sS'prj_name'
p4
S'Life Fighter'
p5
sS'docformat'
p6
S'plaintext'
p7
sS'inheritance'
p8
S'grouped'
p9
sS'help'
p10
NsS'modules'
p11
(S'/home/juanjo/python/life-fighter/life.py'
p12
S'/home/juanjo/python/life-fighter/menu.py'
p13
S'/home/juanjo/python/life-fighter/run.py'
p14
S'/home/juanjo/python/life-fighter/settings.py'
p15
S'/home/juanjo/python/life-fighter/stages.py'
p16
S'/home/juanjo/python/life-fighter/utils.py'
p17
tp18
sS'private'
p19
I0
sS'prj_url'
p20
NsS'frames'
p21
I1
sS'css'
p22
S'green'
p23
sS'outdir'
p24
S'/home/juanjo/python/life-fighter/doc/hackers'
p25
s.
