ccopy_reg
_reconstructor
p0
(clife
Pattern
p1
c__builtin__
object
p2
Ntp3
Rp4
(dp5
S'kind'
p6
S'Mortal'
p7
sS'alive_cells'
p8
(lp9
(I5
I5
tp10
a(I7
I6
tp11
a(I3
I2
tp12
a(I7
I5
tp13
a(I7
I2
tp14
a(I3
I6
tp15
a(I6
I4
tp16
a(I5
I4
tp17
a(I4
I6
tp18
a(I7
I4
tp19
a(I6
I2
tp20
a(I5
I3
tp21
a(I3
I4
tp22
a(I5
I6
tp23
a(I3
I3
tp24
a(I4
I4
tp25
a(I5
I2
tp26
asS'name'
p27
S'Esv\xe1stica'
p28
sS'period'
p29
S''
p30
sb.